; ModuleID = '20/483.c'
source_filename = "20/483.c"
target datalayout = "e-m:e-p270:32:32-p271:32:32-p272:64:64-i64:64-f80:128-n8:16:32:64-S128"
target triple = "x86_64-pc-linux-gnu"

@.str = private unnamed_addr constant [5 x i8] c"%s%s\00", align 1
@.str.1 = private unnamed_addr constant [3 x i8] c"%c\00", align 1
@.str.2 = private unnamed_addr constant [3 x i8] c"%s\00", align 1
@.str.3 = private unnamed_addr constant [2 x i8] c"\0A\00", align 1

; Function Attrs: noinline nounwind uwtable
define dso_local i32 @main() #0 {
  %1 = alloca i32, align 4
  %2 = alloca [11 x i8], align 1
  %3 = alloca [4 x i8], align 1
  %4 = alloca i8, align 1
  %5 = alloca i32, align 4
  %6 = alloca i32, align 4
  %7 = alloca i32, align 4
  store i32 0, i32* %1, align 4
  store i8 0, i8* %4, align 1
  store i32 0, i32* %5, align 4
  br label %8

8:                                                ; preds = %74, %0
  %9 = getelementptr inbounds [11 x i8], [11 x i8]* %2, i64 0, i64 0
  %10 = getelementptr inbounds [4 x i8], [4 x i8]* %3, i64 0, i64 0
  %11 = call i32 (i8*, ...) @__isoc99_scanf(i8* getelementptr inbounds ([5 x i8], [5 x i8]* @.str, i64 0, i64 0), i8* %9, i8* %10)
  %12 = icmp ne i32 %11, -1
  br i1 %12, label %13, label %76

13:                                               ; preds = %8
  %14 = getelementptr inbounds [11 x i8], [11 x i8]* %2, i64 0, i64 0
  %15 = call i64 @strlen(i8* %14) #3
  %16 = trunc i64 %15 to i32
  store i32 %16, i32* %7, align 4
  store i32 0, i32* %6, align 4
  br label %17

17:                                               ; preds = %37, %13
  %18 = load i32, i32* %6, align 4
  %19 = load i32, i32* %7, align 4
  %20 = icmp slt i32 %18, %19
  br i1 %20, label %21, label %40

21:                                               ; preds = %17
  %22 = load i32, i32* %6, align 4
  %23 = sext i32 %22 to i64
  %24 = getelementptr inbounds [11 x i8], [11 x i8]* %2, i64 0, i64 %23
  %25 = load i8, i8* %24, align 1
  %26 = sext i8 %25 to i32
  %27 = load i8, i8* %4, align 1
  %28 = sext i8 %27 to i32
  %29 = icmp sgt i32 %26, %28
  br i1 %29, label %30, label %36

30:                                               ; preds = %21
  %31 = load i32, i32* %6, align 4
  %32 = sext i32 %31 to i64
  %33 = getelementptr inbounds [11 x i8], [11 x i8]* %2, i64 0, i64 %32
  %34 = load i8, i8* %33, align 1
  store i8 %34, i8* %4, align 1
  %35 = load i32, i32* %6, align 4
  store i32 %35, i32* %5, align 4
  br label %36

36:                                               ; preds = %30, %21
  br label %37

37:                                               ; preds = %36
  %38 = load i32, i32* %6, align 4
  %39 = add nsw i32 %38, 1
  store i32 %39, i32* %6, align 4
  br label %17

40:                                               ; preds = %17
  store i32 0, i32* %6, align 4
  br label %41

41:                                               ; preds = %52, %40
  %42 = load i32, i32* %6, align 4
  %43 = load i32, i32* %5, align 4
  %44 = icmp sle i32 %42, %43
  br i1 %44, label %45, label %55

45:                                               ; preds = %41
  %46 = load i32, i32* %6, align 4
  %47 = sext i32 %46 to i64
  %48 = getelementptr inbounds [11 x i8], [11 x i8]* %2, i64 0, i64 %47
  %49 = load i8, i8* %48, align 1
  %50 = sext i8 %49 to i32
  %51 = call i32 (i8*, ...) @printf(i8* getelementptr inbounds ([3 x i8], [3 x i8]* @.str.1, i64 0, i64 0), i32 %50)
  br label %52

52:                                               ; preds = %45
  %53 = load i32, i32* %6, align 4
  %54 = add nsw i32 %53, 1
  store i32 %54, i32* %6, align 4
  br label %41

55:                                               ; preds = %41
  %56 = getelementptr inbounds [4 x i8], [4 x i8]* %3, i64 0, i64 0
  %57 = call i32 (i8*, ...) @printf(i8* getelementptr inbounds ([3 x i8], [3 x i8]* @.str.2, i64 0, i64 0), i8* %56)
  %58 = load i32, i32* %5, align 4
  %59 = add nsw i32 %58, 1
  store i32 %59, i32* %6, align 4
  br label %60

60:                                               ; preds = %71, %55
  %61 = load i32, i32* %6, align 4
  %62 = load i32, i32* %7, align 4
  %63 = icmp slt i32 %61, %62
  br i1 %63, label %64, label %74

64:                                               ; preds = %60
  %65 = load i32, i32* %6, align 4
  %66 = sext i32 %65 to i64
  %67 = getelementptr inbounds [11 x i8], [11 x i8]* %2, i64 0, i64 %66
  %68 = load i8, i8* %67, align 1
  %69 = sext i8 %68 to i32
  %70 = call i32 (i8*, ...) @printf(i8* getelementptr inbounds ([3 x i8], [3 x i8]* @.str.1, i64 0, i64 0), i32 %69)
  br label %71

71:                                               ; preds = %64
  %72 = load i32, i32* %6, align 4
  %73 = add nsw i32 %72, 1
  store i32 %73, i32* %6, align 4
  br label %60

74:                                               ; preds = %60
  %75 = call i32 (i8*, ...) @printf(i8* getelementptr inbounds ([2 x i8], [2 x i8]* @.str.3, i64 0, i64 0))
  store i32 0, i32* %5, align 4
  store i8 0, i8* %4, align 1
  br label %8

76:                                               ; preds = %8
  %77 = load i32, i32* %1, align 4
  ret i32 %77
}

declare dso_local i32 @__isoc99_scanf(i8*, ...) #1

; Function Attrs: nounwind readonly
declare dso_local i64 @strlen(i8*) #2

declare dso_local i32 @printf(i8*, ...) #1


!llvm.module.flags = !{!0}
!llvm.ident = !{!1}

!0 = !{i32 1, !"wchar_size", i32 4}
!1 = !{!"clang version 10.0.0-4ubuntu1 "}
